target datalayout = "e-m:e-p270:32:32-p271:32:32-p272:64:64-i64:64-i128:128-f80:128-n8:16:32:64-S128"
target triple = "x86_64-pc-linux-gnu"

%struct.Saig_ParBmc_t_ = type { i32, i32, i32, i32, i32, i32, i32, i32, i32, i32, i32, i32, i32, i32, i32, i32, i32, i32, i32, i32, i32, i32, i32, ptr, i32, i32, i32, i32, i64, ptr, i32, ptr }
%struct.Aig_Man_t_ = type { ptr, ptr, ptr, ptr, ptr, ptr, ptr, %struct.Aig_Obj_t_, i32, i32, i32, i32, i32, i32, [7 x i32], i32, ptr, i32, ptr, i32, ptr, i32, i32, i32, ptr, i32, i32, i32, i32, i32, ptr, ptr, i32, ptr, ptr, i32, ptr, ptr, i32, i32, i32, ptr, ptr, ptr, ptr, ptr, ptr, ptr, ptr, ptr, ptr, ptr, ptr, ptr, ptr, i32, ptr, ptr, ptr, ptr, i32, i64, i64, i64, ptr, ptr }
%struct.Aig_Obj_t_ = type { %union.anon, ptr, ptr, i64, i32, i32, %union.anon.0 }
%union.anon = type { ptr }
%union.anon.0 = type { ptr }
%struct.Abc_Cex_t_ = type { i32, i32, i32, i32, i32, [0 x i32] }
%struct.Gia_Man_t_ = type { ptr, ptr, i32, i32, i32, i32, ptr, ptr, i32, i32, i32, ptr, ptr, %struct.Vec_Int_t_, %struct.Vec_Int_t_, i32, i32, i32, %struct.Vec_Int_t_, ptr, ptr, ptr, i32, i32, i32, i32, ptr, ptr, ptr, ptr, ptr, i32, i32, ptr, i32, ptr, ptr, ptr, ptr, ptr, ptr, ptr, ptr, ptr, ptr, ptr, ptr, ptr, ptr, ptr, ptr, ptr, ptr, %struct.Vec_Int_t_, %struct.Vec_Int_t_, ptr, ptr, ptr, ptr, ptr, ptr, ptr, ptr, ptr, ptr, ptr, ptr, ptr, ptr, ptr, ptr, ptr, ptr, ptr, ptr, ptr, i32, float, float, ptr, ptr, i32, ptr, ptr, ptr, ptr, ptr, ptr, ptr, ptr, ptr, ptr, ptr, ptr, ptr, ptr, ptr, i64, i64, ptr, ptr, i32, i32, i32, i32, i32, i32, i32, i32, i32, i32, i32, i32, ptr, ptr, ptr, ptr, ptr, ptr, ptr, ptr, i32, i32, i32, ptr, i32, i32, ptr, ptr, ptr, ptr, ptr, ptr, i32, i32, ptr, %struct.Vec_Int_t_, %struct.Vec_Int_t_, %struct.Vec_Int_t_, ptr, ptr, ptr, i32, i32, i32, i32, ptr, ptr, ptr, ptr, ptr }
%struct.Vec_Int_t_ = type { i32, i32, ptr }

@.str = private unnamed_addr constant [51 x i8] c"Output %d of miter \22%s\22 was asserted in frame %d.\0A\00", align 1
@.str.1 = private unnamed_addr constant [58 x i8] c"No output asserted in %d frames. Resource limit reached.\0A\00", align 1

; Function Attrs: nounwind uwtable
define ptr @Bmc_ChainFailOneOutput(ptr noundef %0, i32 noundef %1, i32 noundef %2, i32 noundef %3, i32 noundef %4) #0 {
  %6 = alloca ptr, align 8
  %7 = alloca i32, align 4
  %8 = alloca i32, align 4
  %9 = alloca i32, align 4
  %10 = alloca i32, align 4
  %11 = alloca i32, align 4
  %12 = alloca ptr, align 8
  %13 = alloca ptr, align 8
  %14 = alloca %struct.Saig_ParBmc_t_, align 8
  %15 = alloca ptr, align 8
  store ptr %0, ptr %6, align 8, !tbaa !3
  store i32 %1, ptr %7, align 4, !tbaa !8
  store i32 %2, ptr %8, align 4, !tbaa !8
  store i32 %3, ptr %9, align 4, !tbaa !8
  store i32 %4, ptr %10, align 4, !tbaa !8
  call void @llvm.lifetime.start.p0(i64 4, ptr %11) #11
  call void @llvm.lifetime.start.p0(i64 8, ptr %12) #11
  store ptr null, ptr %12, align 8, !tbaa !10
  call void @llvm.lifetime.start.p0(i64 8, ptr %13) #11
  %16 = load ptr, ptr %6, align 8, !tbaa !3
  %17 = call ptr @Gia_ManToAigSimple(ptr noundef %16)
  store ptr %17, ptr %13, align 8, !tbaa !12
  call void @llvm.lifetime.start.p0(i64 152, ptr %14) #11
  call void @llvm.lifetime.start.p0(i64 8, ptr %15) #11
  store ptr %14, ptr %15, align 8, !tbaa !14
  %18 = load ptr, ptr %15, align 8, !tbaa !14
  call void @Saig_ParBmcSetDefaultParams(ptr noundef %18)
  %19 = load i32, ptr %7, align 4, !tbaa !8
  %20 = load ptr, ptr %15, align 8, !tbaa !14
  %21 = getelementptr inbounds nuw %struct.Saig_ParBmc_t_, ptr %20, i32 0, i32 1
  store i32 %19, ptr %21, align 4, !tbaa !16
  %22 = load i32, ptr %8, align 4, !tbaa !8
  %23 = load ptr, ptr %15, align 8, !tbaa !14
  %24 = getelementptr inbounds nuw %struct.Saig_ParBmc_t_, ptr %23, i32 0, i32 2
  store i32 %22, ptr %24, align 8, !tbaa !20
  %25 = load i32, ptr %10, align 4, !tbaa !8
  %26 = load ptr, ptr %15, align 8, !tbaa !14
  %27 = getelementptr inbounds nuw %struct.Saig_ParBmc_t_, ptr %26, i32 0, i32 21
  store i32 %25, ptr %27, align 4, !tbaa !21
  %28 = load ptr, ptr %13, align 8, !tbaa !12
  %29 = load ptr, ptr %15, align 8, !tbaa !14
  %30 = call i32 @Saig_ManBmcScalable(ptr noundef %28, ptr noundef %29)
  store i32 %30, ptr %11, align 4, !tbaa !8
  %31 = load i32, ptr %11, align 4, !tbaa !8
  %32 = icmp eq i32 %31, 0
  br i1 %32, label %33, label %52

33:                                               ; preds = %5
  %34 = load ptr, ptr %13, align 8, !tbaa !12
  %35 = getelementptr inbounds nuw %struct.Aig_Man_t_, ptr %34, i32 0, i32 51
  %36 = load ptr, ptr %35, align 8, !tbaa !22
  store ptr %36, ptr %12, align 8, !tbaa !10
  %37 = load ptr, ptr %13, align 8, !tbaa !12
  %38 = getelementptr inbounds nuw %struct.Aig_Man_t_, ptr %37, i32 0, i32 51
  store ptr null, ptr %38, align 8, !tbaa !22
  %39 = load i32, ptr %10, align 4, !tbaa !8
  %40 = icmp ne i32 %39, 0
  br i1 %40, label %41, label %51

41:                                               ; preds = %33
  %42 = load ptr, ptr %12, align 8, !tbaa !10
  %43 = getelementptr inbounds nuw %struct.Abc_Cex_t_, ptr %42, i32 0, i32 0
  %44 = load i32, ptr %43, align 4, !tbaa !32
  %45 = load ptr, ptr %6, align 8, !tbaa !3
  %46 = getelementptr inbounds nuw %struct.Gia_Man_t_, ptr %45, i32 0, i32 0
  %47 = load ptr, ptr %46, align 8, !tbaa !34
  %48 = load ptr, ptr %12, align 8, !tbaa !10
  %49 = getelementptr inbounds nuw %struct.Abc_Cex_t_, ptr %48, i32 0, i32 1
  %50 = load i32, ptr %49, align 4, !tbaa !47
  call void (i32, ptr, ...) @Abc_Print(i32 noundef 1, ptr noundef @.str, i32 noundef %44, ptr noundef %47, i32 noundef %50)
  br label %51

51:                                               ; preds = %41, %33
  br label %61

52:                                               ; preds = %5
  %53 = load i32, ptr %10, align 4, !tbaa !8
  %54 = icmp ne i32 %53, 0
  br i1 %54, label %55, label %60

55:                                               ; preds = %52
  %56 = load ptr, ptr %15, align 8, !tbaa !14
  %57 = getelementptr inbounds nuw %struct.Saig_ParBmc_t_, ptr %56, i32 0, i32 25
  %58 = load i32, ptr %57, align 4, !tbaa !48
  %59 = add nsw i32 %58, 2
  call void (i32, ptr, ...) @Abc_Print(i32 noundef 1, ptr noundef @.str.1, i32 noundef %59)
  br label %60

60:                                               ; preds = %55, %52
  br label %61

61:                                               ; preds = %60, %51
  %62 = load ptr, ptr %13, align 8, !tbaa !12
  call void @Aig_ManStop(ptr noundef %62)
  %63 = load ptr, ptr %12, align 8, !tbaa !10
  call void @llvm.lifetime.end.p0(i64 8, ptr %15) #11
  call void @llvm.lifetime.end.p0(i64 152, ptr %14) #11
  call void @llvm.lifetime.end.p0(i64 8, ptr %13) #11
  call void @llvm.lifetime.end.p0(i64 8, ptr %12) #11
  call void @llvm.lifetime.end.p0(i64 4, ptr %11) #11
  ret ptr %63
}