; Function Attrs: nounwind uwtable
define ptr @Bmc_ChainFailOneOutput(ptr noundef %0, i32 noundef %1, i32 noundef %2, i32 %3, i32 noundef %4) local_unnamed_addr #0 {
  %6 = alloca %struct.Saig_ParBmc_t_, align 8
  %7 = tail call ptr @Gia_ManToAigSimple(ptr noundef %0) #17
  call void @llvm.lifetime.start.p0(i64 152, ptr nonnull %6) #17
  call void @Saig_ParBmcSetDefaultParams(ptr noundef nonnull %6) #17
  %8 = getelementptr inbounds nuw i8, ptr %6, i64 4
  store i32 %1, ptr %8, align 4, !tbaa !3
  %9 = getelementptr inbounds nuw i8, ptr %6, i64 8
  store i32 %2, ptr %9, align 8, !tbaa !11
  %10 = getelementptr inbounds nuw i8, ptr %6, i64 84
  store i32 %4, ptr %10, align 4, !tbaa !12
  %11 = call i32 @Saig_ManBmcScalable(ptr noundef %7, ptr noundef nonnull %6) #17
  %12 = icmp eq i32 %11, 0
  br i1 %12, label %13, label %21

13:                                               ; preds = %5
  %14 = getelementptr inbounds nuw i8, ptr %7, i64 408
  %15 = load ptr, ptr %14, align 8, !tbaa !13
  store ptr null, ptr %14, align 8, !tbaa !13
  %.not20 = icmp eq i32 %4, 0
  br i1 %.not20, label %26, label %16

16:                                               ; preds = %13
  %17 = load i32, ptr %15, align 4, !tbaa !25
  %18 = load ptr, ptr %0, align 8, !tbaa !27
  %19 = getelementptr inbounds nuw i8, ptr %15, i64 4
  %20 = load i32, ptr %19, align 4, !tbaa !41
  call void (i32, ptr, ...) @Abc_Print(i32 poison, ptr noundef nonnull @.str, i32 noundef %17, ptr noundef %18, i32 noundef %20)
  br label %26

21:                                               ; preds = %5
  %.not = icmp eq i32 %4, 0
  br i1 %.not, label %26, label %22

22:                                               ; preds = %21
  %23 = getelementptr inbounds nuw i8, ptr %6, i64 108
  %24 = load i32, ptr %23, align 4, !tbaa !42
  %25 = add nsw i32 %24, 2
  call void (i32, ptr, ...) @Abc_Print(i32 poison, ptr noundef nonnull @.str.1, i32 noundef %25)
  br label %26

26:                                               ; preds = %21, %22, %13, %16
  %.0 = phi ptr [ %15, %16 ], [ %15, %13 ], [ null, %22 ], [ null, %21 ]
  call void @Aig_ManStop(ptr noundef %7) #17
  call void @llvm.lifetime.end.p0(i64 152, ptr nonnull %6) #17
  ret ptr %.0
}